; Function Attrs: mustprogress nofree norecurse nosync nounwind willreturn memory(write, argmem: readwrite, inaccessiblemem: none) uwtable
define void @stbtt__csctx_v(ptr noundef captures(none) %0, i8 noundef zeroext %1, i32 noundef %2, i32 noundef %3, i32 noundef %4, i32 noundef %5, i32 noundef %6, i32 noundef %7) local_unnamed_addr #18 {
  %9 = load i32, ptr %0, align 8, !tbaa !63
  %.not = icmp eq i32 %9, 0
  br i1 %.not, label %75, label %10

10:                                               ; preds = %8
  %11 = getelementptr inbounds nuw i8, ptr %0, i64 28
  %12 = load i32, ptr %11, align 4, !tbaa !58
  %13 = icmp sgt i32 %2, %12
  br i1 %13, label %17, label %14

14:                                               ; preds = %10
  %15 = getelementptr inbounds nuw i8, ptr %0, i64 4
  %16 = load i32, ptr %15, align 4, !tbaa !59
  %.not.i = icmp eq i32 %16, 0
  br i1 %.not.i, label %17, label %18

17:                                               ; preds = %14, %10
  store i32 %2, ptr %11, align 4, !tbaa !58
  br label %18

18:                                               ; preds = %17, %14
  %19 = phi i32 [ %2, %17 ], [ %12, %14 ]
  %20 = getelementptr inbounds nuw i8, ptr %0, i64 36
  %21 = load i32, ptr %20, align 4, !tbaa !60
  %22 = icmp sgt i32 %3, %21
  br i1 %22, label %26, label %23

23:                                               ; preds = %18
  %24 = getelementptr inbounds nuw i8, ptr %0, i64 4
  %25 = load i32, ptr %24, align 4, !tbaa !59
  %.not20.i = icmp eq i32 %25, 0
  br i1 %.not20.i, label %26, label %27

26:                                               ; preds = %23, %18
  store i32 %3, ptr %20, align 4, !tbaa !60
  br label %27

27:                                               ; preds = %26, %23
  %28 = phi i32 [ %3, %26 ], [ %21, %23 ]
  %29 = getelementptr inbounds nuw i8, ptr %0, i64 24
  %30 = load i32, ptr %29, align 8, !tbaa !61
  %31 = icmp slt i32 %2, %30
  br i1 %31, label %35, label %32

32:                                               ; preds = %27
  %33 = getelementptr inbounds nuw i8, ptr %0, i64 4
  %34 = load i32, ptr %33, align 4, !tbaa !59
  %.not21.i = icmp eq i32 %34, 0
  br i1 %.not21.i, label %35, label %36

35:                                               ; preds = %32, %27
  store i32 %2, ptr %29, align 8, !tbaa !61
  br label %36

36:                                               ; preds = %35, %32
  %37 = phi i32 [ %2, %35 ], [ %30, %32 ]
  %38 = getelementptr inbounds nuw i8, ptr %0, i64 32
  %39 = load i32, ptr %38, align 8, !tbaa !62
  %40 = icmp slt i32 %3, %39
  br i1 %40, label %44, label %41

41:                                               ; preds = %36
  %42 = getelementptr inbounds nuw i8, ptr %0, i64 4
  %43 = load i32, ptr %42, align 4, !tbaa !59
  %.not22.i = icmp eq i32 %43, 0
  br i1 %.not22.i, label %44, label %stbtt__track_vertex.exit

44:                                               ; preds = %41, %36
  store i32 %3, ptr %38, align 8, !tbaa !62
  br label %stbtt__track_vertex.exit

stbtt__track_vertex.exit:                         ; preds = %41, %44
  %45 = phi i32 [ %39, %41 ], [ %3, %44 ]
  %46 = getelementptr inbounds nuw i8, ptr %0, i64 4
  store i32 1, ptr %46, align 4, !tbaa !59
  %47 = icmp eq i8 %1, 4
  br i1 %47, label %48, label %94

48:                                               ; preds = %stbtt__track_vertex.exit
  %49 = icmp sgt i32 %4, %19
  br i1 %49, label %50, label %51

50:                                               ; preds = %48
  store i32 %4, ptr %11, align 4, !tbaa !58
  br label %51

51:                                               ; preds = %48, %50
  %52 = phi i32 [ %19, %48 ], [ %4, %50 ]
  %53 = icmp sgt i32 %5, %28
  br i1 %53, label %54, label %55

54:                                               ; preds = %51
  store i32 %5, ptr %20, align 4, !tbaa !60
  br label %55

55:                                               ; preds = %51, %54
  %56 = phi i32 [ %28, %51 ], [ %5, %54 ]
  %57 = icmp slt i32 %4, %37
  br i1 %57, label %58, label %59

58:                                               ; preds = %55
  store i32 %4, ptr %29, align 8, !tbaa !61
  br label %59

59:                                               ; preds = %55, %58
  %60 = phi i32 [ %37, %55 ], [ %4, %58 ]
  %61 = icmp slt i32 %5, %45
  br i1 %61, label %62, label %stbtt__track_vertex.exit28

62:                                               ; preds = %59
  store i32 %5, ptr %38, align 8, !tbaa !62
  br label %stbtt__track_vertex.exit28

stbtt__track_vertex.exit28:                       ; preds = %59, %62
  %63 = phi i32 [ %45, %59 ], [ %5, %62 ]
  %64 = icmp sgt i32 %6, %52
  br i1 %64, label %65, label %66

65:                                               ; preds = %stbtt__track_vertex.exit28
  store i32 %6, ptr %11, align 4, !tbaa !58
  br label %66

66:                                               ; preds = %stbtt__track_vertex.exit28, %65
  %67 = icmp sgt i32 %7, %56
  br i1 %67, label %68, label %69

68:                                               ; preds = %66
  store i32 %7, ptr %20, align 4, !tbaa !60
  br label %69

69:                                               ; preds = %66, %68
  %70 = icmp slt i32 %6, %60
  br i1 %70, label %71, label %72

71:                                               ; preds = %69
  store i32 %6, ptr %29, align 8, !tbaa !61
  br label %72

72:                                               ; preds = %69, %71
  %73 = icmp slt i32 %7, %63
  br i1 %73, label %74, label %stbtt__track_vertex.exit33

74:                                               ; preds = %72
  store i32 %7, ptr %38, align 8, !tbaa !62
  br label %stbtt__track_vertex.exit33

stbtt__track_vertex.exit33:                       ; preds = %72, %74
  store i32 1, ptr %46, align 4, !tbaa !59
  br label %94

75:                                               ; preds = %8
  %76 = getelementptr inbounds nuw i8, ptr %0, i64 40
  %77 = load ptr, ptr %76, align 8, !tbaa !44
  %78 = getelementptr inbounds nuw i8, ptr %0, i64 48
  %79 = load i32, ptr %78, align 8, !tbaa !40
  %80 = sext i32 %79 to i64
  %81 = getelementptr inbounds %struct.stbtt_vertex, ptr %77, i64 %80
  %82 = getelementptr inbounds nuw i8, ptr %81, i64 12
  store i8 %1, ptr %82, align 2, !tbaa !45
  %83 = trunc i32 %2 to i16
  store i16 %83, ptr %81, align 2, !tbaa !48
  %84 = trunc i32 %3 to i16
  %85 = getelementptr inbounds nuw i8, ptr %81, i64 2
  store i16 %84, ptr %85, align 2, !tbaa !49
  %86 = trunc i32 %4 to i16
  %87 = getelementptr inbounds nuw i8, ptr %81, i64 4
  store i16 %86, ptr %87, align 2, !tbaa !50
  %88 = trunc i32 %5 to i16
  %89 = getelementptr inbounds nuw i8, ptr %81, i64 6
  store i16 %88, ptr %89, align 2, !tbaa !51
  %90 = trunc i32 %6 to i16
  %91 = getelementptr inbounds %struct.stbtt_vertex, ptr %77, i64 %80, i32 4
  store i16 %90, ptr %91, align 2, !tbaa !64
  %92 = trunc i32 %7 to i16
  %93 = getelementptr inbounds %struct.stbtt_vertex, ptr %77, i64 %80, i32 5
  store i16 %92, ptr %93, align 2, !tbaa !65
  br label %94

94:                                               ; preds = %stbtt__track_vertex.exit, %stbtt__track_vertex.exit33, %75
  %95 = getelementptr inbounds nuw i8, ptr %0, i64 48
  %96 = load i32, ptr %95, align 8, !tbaa !40
  %97 = add nsw i32 %96, 1
  store i32 %97, ptr %95, align 8, !tbaa !40
  ret void
}